; ModuleID = '43/234.c'
source_filename = "43/234.c"
target datalayout = "e-m:e-p270:32:32-p271:32:32-p272:64:64-i64:64-f80:128-n8:16:32:64-S128"
target triple = "x86_64-pc-linux-gnu"

@.str = private unnamed_addr constant [3 x i8] c"%d\00", align 1
@.str.1 = private unnamed_addr constant [7 x i8] c"%d %d\0A\00", align 1

; Function Attrs: noinline nounwind uwtable
define dso_local i32 @main() #0 {
  %1 = alloca i32, align 4
  %2 = alloca i32, align 4
  %3 = alloca i32, align 4
  %4 = alloca i32, align 4
  store i32 0, i32* %1, align 4
  %5 = call i32 (i8*, ...) @__isoc99_scanf(i8* getelementptr inbounds ([3 x i8], [3 x i8]* @.str, i64 0, i64 0), i32* %2)
  store i32 3, i32* %3, align 4
  br label %6

6:                                                ; preds = %27, %0
  %7 = load i32, i32* %3, align 4
  %8 = load i32, i32* %2, align 4
  %9 = sdiv i32 %8, 2
  %10 = icmp sle i32 %7, %9
  br i1 %10, label %11, label %30

11:                                               ; preds = %6
  %12 = load i32, i32* %2, align 4
  %13 = load i32, i32* %3, align 4
  %14 = sub nsw i32 %12, %13
  store i32 %14, i32* %4, align 4
  %15 = load i32, i32* %3, align 4
  %16 = call i32 @su(i32 %15)
  %17 = icmp ne i32 %16, 0
  br i1 %17, label %18, label %26

18:                                               ; preds = %11
  %19 = load i32, i32* %4, align 4
  %20 = call i32 @su(i32 %19)
  %21 = icmp ne i32 %20, 0
  br i1 %21, label %22, label %26

22:                                               ; preds = %18
  %23 = load i32, i32* %3, align 4
  %24 = load i32, i32* %4, align 4
  %25 = call i32 (i8*, ...) @printf(i8* getelementptr inbounds ([7 x i8], [7 x i8]* @.str.1, i64 0, i64 0), i32 %23, i32 %24)
  br label %26

26:                                               ; preds = %22, %18, %11
  br label %27

27:                                               ; preds = %26
  %28 = load i32, i32* %3, align 4
  %29 = add nsw i32 %28, 2
  store i32 %29, i32* %3, align 4
  br label %6

30:                                               ; preds = %6
  %31 = load i32, i32* %1, align 4
  ret i32 %31
}

declare dso_local i32 @__isoc99_scanf(i8*, ...) #1

; Function Attrs: noinline nounwind uwtable
define dso_local i32 @su(i32 %0) #0 {
  %2 = alloca i32, align 4
  %3 = alloca i32, align 4
  %4 = alloca i32, align 4
  store i32 %0, i32* %2, align 4
  store i32 1, i32* %4, align 4
  %5 = load i32, i32* %2, align 4
  %6 = icmp eq i32 %5, 2
  br i1 %6, label %7, label %8

7:                                                ; preds = %1
  store i32 1, i32* %4, align 4
  br label %27

8:                                                ; preds = %1
  store i32 2, i32* %3, align 4
  br label %9

9:                                                ; preds = %23, %8
  %10 = load i32, i32* %3, align 4
  %11 = sitofp i32 %10 to double
  %12 = load i32, i32* %2, align 4
  %13 = sitofp i32 %12 to double
  %14 = call double @sqrt(double %13) #3
  %15 = fcmp ole double %11, %14
  br i1 %15, label %16, label %26

16:                                               ; preds = %9
  %17 = load i32, i32* %2, align 4
  %18 = load i32, i32* %3, align 4
  %19 = srem i32 %17, %18
  %20 = icmp eq i32 %19, 0
  br i1 %20, label %21, label %22

21:                                               ; preds = %16
  store i32 0, i32* %4, align 4
  br label %26

22:                                               ; preds = %16
  br label %23

23:                                               ; preds = %22
  %24 = load i32, i32* %3, align 4
  %25 = add nsw i32 %24, 1
  store i32 %25, i32* %3, align 4
  br label %9

26:                                               ; preds = %21, %9
  br label %27

27:                                               ; preds = %26, %7
  %28 = load i32, i32* %4, align 4
  ret i32 %28
}

declare dso_local i32 @printf(i8*, ...) #1

; Function Attrs: nounwind
declare dso_local double @sqrt(double) #2


!llvm.module.flags = !{!0}
!llvm.ident = !{!1}

!0 = !{i32 1, !"wchar_size", i32 4}
!1 = !{!"clang version 10.0.0-4ubuntu1 "}
