; ModuleID = 'source-C-CXX/42/234.c'
source_filename = "source-C-CXX/42/234.c"
target datalayout = "e-m:e-p270:32:32-p271:32:32-p272:64:64-i64:64-f80:128-n8:16:32:64-S128"
target triple = "x86_64-pc-linux-gnu"

@.str = private unnamed_addr constant [3 x i8] c"%d\00", align 1
@.str.1 = private unnamed_addr constant [7 x i8] c"%d %d\0A\00", align 1

; Function Attrs: nofree nounwind sspstrong uwtable
define dso_local i32 @main() local_unnamed_addr #0 {
  %1 = alloca i32, align 4
  %2 = bitcast i32* %1 to i8*
  call void @llvm.lifetime.start.p0i8(i64 4, i8* nonnull %2) #4
  %3 = call i32 (i8*, ...) @__isoc99_scanf(i8* getelementptr inbounds ([3 x i8], [3 x i8]* @.str, i64 0, i64 0), i32* nonnull %1)
  %4 = load i32, i32* %1, align 4, !tbaa !5
  %5 = icmp slt i32 %4, 6
  br i1 %5, label %44, label %6

6:                                                ; preds = %0, %39
  %7 = phi i32 [ %41, %39 ], [ %4, %0 ]
  %8 = phi i32 [ %40, %39 ], [ 3, %0 ]
  %9 = sub nsw i32 %7, %8
  %10 = sitofp i32 %8 to double
  %11 = call double @sqrt(double %10) #4
  %12 = fcmp ult double %11, 2.000000e+00
  br i1 %12, label %22, label %17

13:                                               ; preds = %17
  %14 = sitofp i32 %21 to double
  %15 = call double @sqrt(double %10) #4
  %16 = fcmp ult double %15, %14
  br i1 %16, label %22, label %17, !llvm.loop !9

17:                                               ; preds = %6, %13
  %18 = phi i32 [ %21, %13 ], [ 2, %6 ]
  %19 = urem i32 %8, %18
  %20 = icmp eq i32 %19, 0
  %21 = add nuw nsw i32 %18, 1
  br i1 %20, label %39, label %13

22:                                               ; preds = %13, %6
  %23 = icmp eq i32 %9, 2
  br i1 %23, label %37, label %24

24:                                               ; preds = %22
  %25 = sitofp i32 %9 to double
  %26 = call double @sqrt(double %25) #4
  %27 = fcmp ult double %26, 2.000000e+00
  br i1 %27, label %37, label %32

28:                                               ; preds = %32
  %29 = sitofp i32 %36 to double
  %30 = call double @sqrt(double %25) #4
  %31 = fcmp ult double %30, %29
  br i1 %31, label %37, label %32, !llvm.loop !9

32:                                               ; preds = %24, %28
  %33 = phi i32 [ %36, %28 ], [ 2, %24 ]
  %34 = srem i32 %9, %33
  %35 = icmp eq i32 %34, 0
  %36 = add nuw nsw i32 %33, 1
  br i1 %35, label %39, label %28

37:                                               ; preds = %28, %22, %24
  %38 = call i32 (i8*, ...) @printf(i8* nonnull dereferenceable(1) getelementptr inbounds ([7 x i8], [7 x i8]* @.str.1, i64 0, i64 0), i32 %8, i32 %9)
  br label %39

39:                                               ; preds = %17, %32, %37
  %40 = add nuw nsw i32 %8, 2
  %41 = load i32, i32* %1, align 4, !tbaa !5
  %42 = sdiv i32 %41, 2
  %43 = icmp sgt i32 %40, %42
  br i1 %43, label %44, label %6, !llvm.loop !11

44:                                               ; preds = %39, %0
  call void @llvm.lifetime.end.p0i8(i64 4, i8* nonnull %2) #4
  ret i32 0
}

; Function Attrs: argmemonly mustprogress nofree nosync nounwind willreturn
declare void @llvm.lifetime.start.p0i8(i64 immarg, i8* nocapture) #1

; Function Attrs: nofree nounwind
declare noundef i32 @__isoc99_scanf(i8* nocapture noundef readonly, ...) local_unnamed_addr #2

; Function Attrs: nofree nounwind sspstrong uwtable
define dso_local i32 @su(i32 %0) local_unnamed_addr #0 {
  %2 = icmp eq i32 %0, 2
  br i1 %2, label %16, label %3

3:                                                ; preds = %1
  %4 = sitofp i32 %0 to double
  %5 = tail call double @sqrt(double %4) #4
  %6 = fcmp ult double %5, 2.000000e+00
  br i1 %6, label %16, label %11

7:                                                ; preds = %11
  %8 = sitofp i32 %15 to double
  %9 = tail call double @sqrt(double %4) #4
  %10 = fcmp ult double %9, %8
  br i1 %10, label %16, label %11, !llvm.loop !9

11:                                               ; preds = %3, %7
  %12 = phi i32 [ %15, %7 ], [ 2, %3 ]
  %13 = srem i32 %0, %12
  %14 = icmp eq i32 %13, 0
  %15 = add nuw nsw i32 %12, 1
  br i1 %14, label %16, label %7

16:                                               ; preds = %7, %11, %3, %1
  %17 = phi i32 [ 1, %1 ], [ 1, %3 ], [ 1, %7 ], [ 0, %11 ]
  ret i32 %17
}

; Function Attrs: nofree nounwind
declare noundef i32 @printf(i8* nocapture noundef readonly, ...) local_unnamed_addr #2

; Function Attrs: argmemonly mustprogress nofree nosync nounwind willreturn
declare void @llvm.lifetime.end.p0i8(i64 immarg, i8* nocapture) #1

; Function Attrs: mustprogress nofree nounwind willreturn
declare double @sqrt(double) local_unnamed_addr #3


!llvm.module.flags = !{!0, !1, !2, !3}
!llvm.ident = !{!4}

!0 = !{i32 1, !"wchar_size", i32 4}
!1 = !{i32 7, !"PIC Level", i32 2}
!2 = !{i32 7, !"PIE Level", i32 2}
!3 = !{i32 7, !"uwtable", i32 1}
!4 = !{!"clang version 13.0.0"}
!5 = !{!6, !6, i64 0}
!6 = !{!"int", !7, i64 0}
!7 = !{!"omnipotent char", !8, i64 0}
!8 = !{!"Simple C/C++ TBAA"}
!9 = distinct !{!9, !10}
!10 = !{!"llvm.loop.mustprogress"}
!11 = distinct !{!11, !10}
